; Function Attrs: mustprogress uwtable
define noundef zeroext i1 @_ZNK6icu_776number4impl14SimpleModifier12strictEqualsERKNS1_8ModifierE(ptr noundef nonnull align 8 dereferenceable(104) %0, ptr noundef nonnull align 8 dereferenceable(8) %1) unnamed_addr #4 align 2 {
  %3 = tail call ptr @__dynamic_cast(ptr nonnull %1, ptr nonnull @_ZTIN6icu_776number4impl8ModifierE, ptr nonnull @_ZTIN6icu_776number4impl14SimpleModifierE, i64 0) #19
  %4 = icmp eq ptr %3, null
  br i1 %4, label %_ZNK6icu_7713UnicodeStringeqERKS0_.exit.thread, label %5

5:                                                ; preds = %2
  %6 = getelementptr inbounds nuw i8, ptr %0, i64 8
  %7 = getelementptr inbounds nuw i8, ptr %0, i64 16
  %8 = load i16, ptr %7, align 8, !tbaa !21
  %9 = and i16 %8, 1
  %.not.i = icmp eq i16 %9, 0
  br i1 %.not.i, label %14, label %10

10:                                               ; preds = %5
  %11 = getelementptr inbounds nuw i8, ptr %3, i64 16
  %12 = load i16, ptr %11, align 8, !tbaa !21
  %13 = and i16 %12, 1
  %.not = icmp eq i16 %13, 0
  br i1 %.not, label %_ZNK6icu_7713UnicodeStringeqERKS0_.exit.thread, label %37

14:                                               ; preds = %5
  %15 = icmp slt i16 %8, 0
  %16 = ashr i16 %8, 5
  %17 = sext i16 %16 to i32
  %18 = getelementptr inbounds nuw i8, ptr %0, i64 20
  %19 = load i32, ptr %18, align 4
  %20 = select i1 %15, i32 %19, i32 %17
  %21 = getelementptr inbounds nuw i8, ptr %3, i64 16
  %22 = load i16, ptr %21, align 8, !tbaa !21
  %23 = icmp slt i16 %22, 0
  %24 = ashr i16 %22, 5
  %25 = sext i16 %24 to i32
  %26 = getelementptr inbounds nuw i8, ptr %3, i64 20
  %27 = load i32, ptr %26, align 4
  %28 = select i1 %23, i32 %27, i32 %25
  %29 = and i16 %22, 1
  %.not9.i = icmp eq i16 %29, 0
  %30 = icmp eq i32 %20, %28
  %or.cond.i = and i1 %.not9.i, %30
  br i1 %or.cond.i, label %_ZNK6icu_7713UnicodeStringeqERKS0_.exit, label %_ZNK6icu_7713UnicodeStringeqERKS0_.exit.thread

_ZNK6icu_7713UnicodeStringeqERKS0_.exit:          ; preds = %14
  %31 = and i16 %22, 2
  %.not.i.i.i = icmp eq i16 %31, 0
  %32 = getelementptr inbounds nuw i8, ptr %3, i64 18
  %33 = getelementptr inbounds nuw i8, ptr %3, i64 32
  %34 = load ptr, ptr %33, align 8
  %35 = select i1 %.not.i.i.i, ptr %34, ptr %32
  %36 = tail call noundef signext i8 @_ZNK6icu_7713UnicodeString8doEqualsEPKDsi(ptr noundef nonnull align 8 dereferenceable(64) %6, ptr noundef %35, i32 noundef %20)
  %.not9 = icmp eq i8 %36, 0
  br i1 %.not9, label %_ZNK6icu_7713UnicodeStringeqERKS0_.exit.thread, label %37

37:                                               ; preds = %10, %_ZNK6icu_7713UnicodeStringeqERKS0_.exit
  %38 = getelementptr inbounds nuw i8, ptr %0, i64 72
  %39 = getelementptr inbounds nuw i8, ptr %3, i64 72
  %40 = load i8, ptr %38, align 8, !tbaa !32
  %41 = load i8, ptr %39, align 1, !tbaa !32
  %42 = icmp eq i8 %40, %41
  br i1 %42, label %43, label %_ZNK6icu_7713UnicodeStringeqERKS0_.exit.thread

43:                                               ; preds = %37
  %44 = getelementptr inbounds nuw i8, ptr %0, i64 73
  %45 = load i8, ptr %44, align 1, !tbaa !33, !range !30, !noundef !31
  %46 = getelementptr inbounds nuw i8, ptr %3, i64 73
  %47 = load i8, ptr %46, align 1, !tbaa !33, !range !30, !noundef !31
  %48 = icmp eq i8 %45, %47
  br label %_ZNK6icu_7713UnicodeStringeqERKS0_.exit.thread

_ZNK6icu_7713UnicodeStringeqERKS0_.exit.thread:   ; preds = %14, %10, %_ZNK6icu_7713UnicodeStringeqERKS0_.exit, %37, %43, %2
  %.0 = phi i1 [ false, %2 ], [ false, %37 ], [ false, %_ZNK6icu_7713UnicodeStringeqERKS0_.exit ], [ %48, %43 ], [ false, %10 ], [ false, %14 ]
  ret i1 %.0
}